target datalayout = "e-m:e-p270:32:32-p271:32:32-p272:64:64-i64:64-i128:128-f80:128-n8:16:32:64-S128"
target triple = "x86_64-pc-linux-gnu"

%struct.PJconsts = type { ptr, ptr, ptr, ptr, ptr, ptr, ptr, ptr, ptr, ptr, ptr, ptr, i32, ptr, ptr, ptr, ptr, ptr, ptr, ptr, ptr, double, double, double, double, double, double, double, double, double, double, double, double, double, double, double, double, double, double, double, double, double, double, i32, i32, i32, i32, i32, i32, i32, i32, i32, i32, i32, ptr, ptr, ptr, ptr, ptr, ptr, double, double, double, double, double, double, double, double, double, double, double, i32, [7 x double], i32, ptr, ptr, double, double, i32, [4 x i8], %"class.std::shared_ptr", i8, double, i8, %"class.std::__cxx11::basic_string", %"class.std::__cxx11::basic_string", %"class.std::__cxx11::basic_string", i8, %"class.std::vector", i32, %"class.std::vector.3", i32, i8, i8, i8, ptr }
%"class.std::shared_ptr" = type { %"class.std::__shared_ptr" }
%"class.std::__shared_ptr" = type { ptr, %"class.std::__shared_count" }
%"class.std::__shared_count" = type { ptr }
%"class.std::__cxx11::basic_string" = type { %"struct.std::__cxx11::basic_string<char>::_Alloc_hider", i64, %union.anon }
%"struct.std::__cxx11::basic_string<char>::_Alloc_hider" = type { ptr }
%union.anon = type { i64, [8 x i8] }
%"class.std::vector" = type { %"struct.std::_Vector_base" }
%"struct.std::_Vector_base" = type { %"struct.std::_Vector_base<osgeo::proj::operation::GridDescription, std::allocator<osgeo::proj::operation::GridDescription>>::_Vector_impl" }
%"struct.std::_Vector_base<osgeo::proj::operation::GridDescription, std::allocator<osgeo::proj::operation::GridDescription>>::_Vector_impl" = type { %"struct.std::_Vector_base<osgeo::proj::operation::GridDescription, std::allocator<osgeo::proj::operation::GridDescription>>::_Vector_impl_data" }
%"struct.std::_Vector_base<osgeo::proj::operation::GridDescription, std::allocator<osgeo::proj::operation::GridDescription>>::_Vector_impl_data" = type { ptr, ptr, ptr }
%"class.std::vector.3" = type { %"struct.std::_Vector_base.4" }
%"struct.std::_Vector_base.4" = type { %"struct.std::_Vector_base<PJCoordOperation, std::allocator<PJCoordOperation>>::_Vector_impl" }
%"struct.std::_Vector_base<PJCoordOperation, std::allocator<PJCoordOperation>>::_Vector_impl" = type { %"struct.std::_Vector_base<PJCoordOperation, std::allocator<PJCoordOperation>>::_Vector_impl_data" }
%"struct.std::_Vector_base<PJCoordOperation, std::allocator<PJCoordOperation>>::_Vector_impl_data" = type { ptr, ptr, ptr }
%struct.PJ_LP = type { double, double }
%struct.PJ_XY = type { double, double }

; Function Attrs: mustprogress uwtable
define internal { double, double } @_ZL19natearth2_s_inverse5PJ_XYP8PJconsts(double %0, double %1, ptr noundef %2) #0 {
  %4 = alloca %struct.PJ_LP, align 8
  %5 = alloca %struct.PJ_XY, align 8
  %6 = alloca ptr, align 8
  %7 = alloca double, align 8
  %8 = alloca double, align 8
  %9 = alloca double, align 8
  %10 = alloca double, align 8
  %11 = alloca double, align 8
  %12 = alloca double, align 8
  %13 = alloca i32, align 4
  %14 = alloca double, align 8
  %15 = alloca i32, align 4
  %16 = getelementptr inbounds nuw { double, double }, ptr %5, i32 0, i32 0
  store double %0, ptr %16, align 8
  %17 = getelementptr inbounds nuw { double, double }, ptr %5, i32 0, i32 1
  store double %1, ptr %17, align 8
  store ptr %2, ptr %6, align 8, !tbaa !3
  call void @llvm.memset.p0.i64(ptr align 8 %4, i8 0, i64 16, i1 false)
  call void @llvm.lifetime.start.p0(i64 8, ptr %7) #6
  call void @llvm.lifetime.start.p0(i64 8, ptr %8) #6
  call void @llvm.lifetime.start.p0(i64 8, ptr %9) #6
  call void @llvm.lifetime.start.p0(i64 8, ptr %10) #6
  call void @llvm.lifetime.start.p0(i64 8, ptr %11) #6
  call void @llvm.lifetime.start.p0(i64 8, ptr %12) #6
  call void @llvm.lifetime.start.p0(i64 4, ptr %13) #6
  %18 = getelementptr inbounds nuw %struct.PJ_XY, ptr %5, i32 0, i32 1
  %19 = load double, ptr %18, align 8, !tbaa !44
  %20 = fcmp ogt double %19, 0x3FF6C9A4865D0F30
  br i1 %20, label %21, label %23

21:                                               ; preds = %3
  %22 = getelementptr inbounds nuw %struct.PJ_XY, ptr %5, i32 0, i32 1
  store double 0x3FF6C9A4865D0F30, ptr %22, align 8, !tbaa !44
  br label %30

23:                                               ; preds = %3
  %24 = getelementptr inbounds nuw %struct.PJ_XY, ptr %5, i32 0, i32 1
  %25 = load double, ptr %24, align 8, !tbaa !44
  %26 = fcmp olt double %25, 0xBFF6C9A4865D0F30
  br i1 %26, label %27, label %29

27:                                               ; preds = %23
  %28 = getelementptr inbounds nuw %struct.PJ_XY, ptr %5, i32 0, i32 1
  store double 0xBFF6C9A4865D0F30, ptr %28, align 8, !tbaa !44
  br label %29

29:                                               ; preds = %27, %23
  br label %30

30:                                               ; preds = %29, %21
  %31 = getelementptr inbounds nuw %struct.PJ_XY, ptr %5, i32 0, i32 1
  %32 = load double, ptr %31, align 8, !tbaa !44
  store double %32, ptr %7, align 8, !tbaa !46
  store i32 100, ptr %13, align 4, !tbaa !47
  br label %33

33:                                               ; preds = %78, %30
  %34 = load i32, ptr %13, align 4, !tbaa !47
  %35 = icmp ne i32 %34, 0
  br i1 %35, label %36, label %81

36:                                               ; preds = %33
  %37 = load double, ptr %7, align 8, !tbaa !46
  %38 = load double, ptr %7, align 8, !tbaa !46
  %39 = fmul double %37, %38
  store double %39, ptr %8, align 8, !tbaa !46
  %40 = load double, ptr %8, align 8, !tbaa !46
  %41 = load double, ptr %8, align 8, !tbaa !46
  %42 = fmul double %40, %41
  store double %42, ptr %9, align 8, !tbaa !46
  %43 = load double, ptr %7, align 8, !tbaa !46
  %44 = load double, ptr %9, align 8, !tbaa !46
  %45 = load double, ptr %9, align 8, !tbaa !46
  %46 = fmul double %44, %45
  %47 = load double, ptr %8, align 8, !tbaa !46
  %48 = call double @llvm.fmuladd.f64(double 1.926000e-02, double %47, double -2.625000e-02)
  %49 = load double, ptr %9, align 8, !tbaa !46
  %50 = call double @llvm.fmuladd.f64(double -3.960000e-03, double %49, double %48)
  %51 = call double @llvm.fmuladd.f64(double %46, double %50, double 1.011830e+00)
  %52 = getelementptr inbounds nuw %struct.PJ_XY, ptr %5, i32 0, i32 1
  %53 = load double, ptr %52, align 8, !tbaa !44
  %54 = fneg double %53
  %55 = call double @llvm.fmuladd.f64(double %43, double %51, double %54)
  store double %55, ptr %11, align 8, !tbaa !46
  %56 = load double, ptr %9, align 8, !tbaa !46
  %57 = load double, ptr %9, align 8, !tbaa !46
  %58 = fmul double %56, %57
  %59 = load double, ptr %8, align 8, !tbaa !46
  %60 = call double @llvm.fmuladd.f64(double 2.118600e-01, double %59, double -2.362500e-01)
  %61 = load double, ptr %9, align 8, !tbaa !46
  %62 = call double @llvm.fmuladd.f64(double -5.148000e-02, double %61, double %60)
  %63 = call double @llvm.fmuladd.f64(double %58, double %62, double 1.011830e+00)
  store double %63, ptr %12, align 8, !tbaa !46
  call void @llvm.lifetime.start.p0(i64 8, ptr %14) #6
  %64 = load double, ptr %11, align 8, !tbaa !46
  %65 = load double, ptr %12, align 8, !tbaa !46
  %66 = fdiv double %64, %65
  store double %66, ptr %14, align 8, !tbaa !46
  %67 = load double, ptr %14, align 8, !tbaa !46
  %68 = load double, ptr %7, align 8, !tbaa !46
  %69 = fsub double %68, %67
  store double %69, ptr %7, align 8, !tbaa !46
  %70 = load double, ptr %14, align 8, !tbaa !46
  %71 = call double @llvm.fabs.f64(double %70)
  %72 = fcmp olt double %71, 0x3DA5FD7FE1796495
  br i1 %72, label %73, label %74

73:                                               ; preds = %36
  store i32 2, ptr %15, align 4
  br label %75

74:                                               ; preds = %36
  store i32 0, ptr %15, align 4
  br label %75

75:                                               ; preds = %74, %73
  call void @llvm.lifetime.end.p0(i64 8, ptr %14) #6
  %76 = load i32, ptr %15, align 4
  switch i32 %76, label %117 [
    i32 0, label %77
    i32 2, label %81
  ]

77:                                               ; preds = %75
  br label %78

78:                                               ; preds = %77
  %79 = load i32, ptr %13, align 4, !tbaa !47
  %80 = add nsw i32 %79, -1
  store i32 %80, ptr %13, align 4, !tbaa !47
  br label %33, !llvm.loop !48

81:                                               ; preds = %75, %33
  %82 = load i32, ptr %13, align 4, !tbaa !47
  %83 = icmp eq i32 %82, 0
  br i1 %83, label %84, label %88

84:                                               ; preds = %81
  %85 = load ptr, ptr %6, align 8, !tbaa !3
  %86 = getelementptr inbounds nuw %struct.PJconsts, ptr %85, i32 0, i32 0
  %87 = load ptr, ptr %86, align 8, !tbaa !50
  call void @_Z22proj_context_errno_setP6pj_ctxi(ptr noundef %87, i32 noundef 2050)
  br label %88

88:                                               ; preds = %84, %81
  %89 = load double, ptr %7, align 8, !tbaa !46
  %90 = getelementptr inbounds nuw %struct.PJ_LP, ptr %4, i32 0, i32 1
  store double %89, ptr %90, align 8, !tbaa !51
  %91 = load double, ptr %7, align 8, !tbaa !46
  %92 = load double, ptr %7, align 8, !tbaa !46
  %93 = fmul double %91, %92
  store double %93, ptr %8, align 8, !tbaa !46
  %94 = load double, ptr %8, align 8, !tbaa !46
  %95 = load double, ptr %8, align 8, !tbaa !46
  %96 = fmul double %94, %95
  store double %96, ptr %9, align 8, !tbaa !46
  %97 = load double, ptr %8, align 8, !tbaa !46
  %98 = load double, ptr %9, align 8, !tbaa !46
  %99 = fmul double %97, %98
  store double %99, ptr %10, align 8, !tbaa !46
  %100 = getelementptr inbounds nuw %struct.PJ_XY, ptr %5, i32 0, i32 0
  %101 = load double, ptr %100, align 8, !tbaa !53
  %102 = load double, ptr %8, align 8, !tbaa !46
  %103 = call double @llvm.fmuladd.f64(double -1.306300e-01, double %102, double 8.471900e-01)
  %104 = load double, ptr %10, align 8, !tbaa !46
  %105 = load double, ptr %10, align 8, !tbaa !46
  %106 = fmul double %104, %105
  %107 = load double, ptr %8, align 8, !tbaa !46
  %108 = call double @llvm.fmuladd.f64(double 5.494000e-02, double %107, double -4.515000e-02)
  %109 = load double, ptr %9, align 8, !tbaa !46
  %110 = call double @llvm.fmuladd.f64(double -2.326000e-02, double %109, double %108)
  %111 = load double, ptr %10, align 8, !tbaa !46
  %112 = call double @llvm.fmuladd.f64(double 3.310000e-03, double %111, double %110)
  %113 = call double @llvm.fmuladd.f64(double %106, double %112, double %103)
  %114 = fdiv double %101, %113
  %115 = getelementptr inbounds nuw %struct.PJ_LP, ptr %4, i32 0, i32 0
  store double %114, ptr %115, align 8, !tbaa !54
  store i32 1, ptr %15, align 4
  call void @llvm.lifetime.end.p0(i64 4, ptr %13) #6
  call void @llvm.lifetime.end.p0(i64 8, ptr %12) #6
  call void @llvm.lifetime.end.p0(i64 8, ptr %11) #6
  call void @llvm.lifetime.end.p0(i64 8, ptr %10) #6
  call void @llvm.lifetime.end.p0(i64 8, ptr %9) #6
  call void @llvm.lifetime.end.p0(i64 8, ptr %8) #6
  call void @llvm.lifetime.end.p0(i64 8, ptr %7) #6
  %116 = load { double, double }, ptr %4, align 8
  ret { double, double } %116

117:                                              ; preds = %75
  unreachable
}