; Function Attrs: mustprogress uwtable
define internal { double, double } @_ZL19natearth2_s_inverse5PJ_XYP8PJconsts(double %0, double %1, ptr noundef readonly captures(none) %2) #0 {
  %4 = fcmp ogt double %1, 0x3FF6C9A4865D0F30
  br i1 %4, label %8, label %5

5:                                                ; preds = %3
  %6 = fcmp olt double %1, 0xBFF6C9A4865D0F30
  br i1 %6, label %7, label %8

7:                                                ; preds = %5
  br label %8

8:                                                ; preds = %3, %5, %7
  %.sroa.2.0 = phi double [ 0xBFF6C9A4865D0F30, %7 ], [ %1, %5 ], [ 0x3FF6C9A4865D0F30, %3 ]
  %9 = fneg double %.sroa.2.0
  br label %12

10:                                               ; preds = %12
  %11 = add nsw i32 %.03947, -1
  %.not = icmp eq i32 %11, 0
  br i1 %.not, label %27, label %12, !llvm.loop !43

12:                                               ; preds = %8, %10
  %.03947 = phi i32 [ 100, %8 ], [ %11, %10 ]
  %.04046 = phi double [ %.sroa.2.0, %8 ], [ %24, %10 ]
  %13 = fmul double %.04046, %.04046
  %14 = fmul double %13, %13
  %15 = fmul double %14, %14
  %16 = tail call double @llvm.fmuladd.f64(double %13, double 1.926000e-02, double -2.625000e-02)
  %17 = tail call double @llvm.fmuladd.f64(double %14, double -3.960000e-03, double %16)
  %18 = tail call double @llvm.fmuladd.f64(double %15, double %17, double 1.011830e+00)
  %19 = tail call double @llvm.fmuladd.f64(double %.04046, double %18, double %9)
  %20 = tail call double @llvm.fmuladd.f64(double %13, double 2.118600e-01, double -2.362500e-01)
  %21 = tail call double @llvm.fmuladd.f64(double %14, double -5.148000e-02, double %20)
  %22 = tail call double @llvm.fmuladd.f64(double %15, double %21, double 1.011830e+00)
  %23 = fdiv double %19, %22
  %24 = fsub double %.04046, %23
  %25 = tail call double @llvm.fabs.f64(double %23)
  %26 = fcmp olt double %25, 0x3DA5FD7FE1796495
  br i1 %26, label %.loopexit, label %10

27:                                               ; preds = %10
  %28 = load ptr, ptr %2, align 8, !tbaa !45
  tail call void @_Z22proj_context_errno_setP6pj_ctxi(ptr noundef %28, i32 noundef 2050)
  br label %.loopexit

.loopexit:                                        ; preds = %12, %27
  %29 = fmul double %24, %24
  %30 = fmul double %29, %29
  %31 = fmul double %29, %30
  %32 = tail call double @llvm.fmuladd.f64(double %29, double -1.306300e-01, double 8.471900e-01)
  %33 = fmul double %31, %31
  %34 = tail call double @llvm.fmuladd.f64(double %29, double 5.494000e-02, double -4.515000e-02)
  %35 = tail call double @llvm.fmuladd.f64(double %30, double -2.326000e-02, double %34)
  %36 = tail call double @llvm.fmuladd.f64(double %31, double 3.310000e-03, double %35)
  %37 = tail call double @llvm.fmuladd.f64(double %33, double %36, double %32)
  %38 = fdiv double %0, %37
  %.fca.0.insert = insertvalue { double, double } poison, double %38, 0
  %.fca.1.insert = insertvalue { double, double } %.fca.0.insert, double %24, 1
  ret { double, double } %.fca.1.insert
}